; ModuleID = '17/788.c'
source_filename = "17/788.c"
target datalayout = "e-m:e-p270:32:32-p271:32:32-p272:64:64-i64:64-f80:128-n8:16:32:64-S128"
target triple = "x86_64-pc-linux-gnu"

@.str = private unnamed_addr constant [3 x i8] c"%d\00", align 1
@a = common dso_local global [101 x i8] zeroinitializer, align 16
@.str.1 = private unnamed_addr constant [3 x i8] c"%s\00", align 1
@.str.2 = private unnamed_addr constant [4 x i8] c"%s\0A\00", align 1

; Function Attrs: noinline nounwind uwtable
define dso_local i32 @main() #0 {
  %1 = alloca i32, align 4
  %2 = alloca i32, align 4
  %3 = alloca i32, align 4
  %4 = alloca i32, align 4
  %5 = alloca i32, align 4
  %6 = alloca i32, align 4
  %7 = alloca i32, align 4
  store i32 0, i32* %1, align 4
  %8 = call i32 (i8*, ...) @__isoc99_scanf(i8* getelementptr inbounds ([3 x i8], [3 x i8]* @.str, i64 0, i64 0), i32* %3)
  store i32 0, i32* %2, align 4
  br label %9

9:                                                ; preds = %119, %0
  %10 = load i32, i32* %2, align 4
  %11 = load i32, i32* %3, align 4
  %12 = icmp slt i32 %10, %11
  br i1 %12, label %13, label %122

13:                                               ; preds = %9
  store i32 0, i32* %4, align 4
  br label %14

14:                                               ; preds = %18, %13
  %15 = load i32, i32* %4, align 4
  %16 = icmp slt i32 %15, 101
  br i1 %16, label %17, label %21

17:                                               ; preds = %14
  store i8 0, i8* getelementptr inbounds ([101 x i8], [101 x i8]* @a, i64 0, i64 0), align 16
  br label %18

18:                                               ; preds = %17
  %19 = load i32, i32* %4, align 4
  %20 = add nsw i32 %19, 1
  store i32 %20, i32* %4, align 4
  br label %14

21:                                               ; preds = %14
  %22 = call i32 (i8*, ...) @__isoc99_scanf(i8* getelementptr inbounds ([3 x i8], [3 x i8]* @.str.1, i64 0, i64 0), i8* getelementptr inbounds ([101 x i8], [101 x i8]* @a, i64 0, i64 0))
  %23 = call i32 (i8*, ...) @printf(i8* getelementptr inbounds ([4 x i8], [4 x i8]* @.str.2, i64 0, i64 0), i8* getelementptr inbounds ([101 x i8], [101 x i8]* @a, i64 0, i64 0))
  %24 = call i64 @strlen(i8* getelementptr inbounds ([101 x i8], [101 x i8]* @a, i64 0, i64 0)) #3
  %25 = trunc i64 %24 to i32
  store i32 %25, i32* %6, align 4
  %26 = load i32, i32* %6, align 4
  %27 = sub nsw i32 %26, 1
  store i32 %27, i32* %4, align 4
  br label %28

28:                                               ; preds = %81, %21
  %29 = load i32, i32* %4, align 4
  %30 = icmp sge i32 %29, 0
  br i1 %30, label %31, label %84

31:                                               ; preds = %28
  %32 = load i32, i32* %4, align 4
  %33 = sext i32 %32 to i64
  %34 = getelementptr inbounds [101 x i8], [101 x i8]* @a, i64 0, i64 %33
  %35 = load i8, i8* %34, align 1
  %36 = sext i8 %35 to i32
  %37 = icmp eq i32 %36, 40
  br i1 %37, label %38, label %80

38:                                               ; preds = %31
  %39 = load i32, i32* %4, align 4
  %40 = load i32, i32* %6, align 4
  %41 = sub nsw i32 %40, 1
  %42 = icmp eq i32 %39, %41
  br i1 %42, label %43, label %47

43:                                               ; preds = %38
  %44 = load i32, i32* %4, align 4
  %45 = sext i32 %44 to i64
  %46 = getelementptr inbounds [101 x i8], [101 x i8]* @a, i64 0, i64 %45
  store i8 36, i8* %46, align 1
  br label %81

47:                                               ; preds = %38
  store i32 1, i32* %7, align 4
  %48 = load i32, i32* %4, align 4
  %49 = add nsw i32 %48, 1
  store i32 %49, i32* %5, align 4
  br label %50

50:                                               ; preds = %69, %47
  %51 = load i32, i32* %5, align 4
  %52 = load i32, i32* %6, align 4
  %53 = icmp slt i32 %51, %52
  br i1 %53, label %54, label %72

54:                                               ; preds = %50
  %55 = load i32, i32* %5, align 4
  %56 = sext i32 %55 to i64
  %57 = getelementptr inbounds [101 x i8], [101 x i8]* @a, i64 0, i64 %56
  %58 = load i8, i8* %57, align 1
  %59 = sext i8 %58 to i32
  %60 = icmp eq i32 %59, 41
  br i1 %60, label %61, label %68

61:                                               ; preds = %54
  %62 = load i32, i32* %4, align 4
  %63 = sext i32 %62 to i64
  %64 = getelementptr inbounds [101 x i8], [101 x i8]* @a, i64 0, i64 %63
  store i8 32, i8* %64, align 1
  %65 = load i32, i32* %5, align 4
  %66 = sext i32 %65 to i64
  %67 = getelementptr inbounds [101 x i8], [101 x i8]* @a, i64 0, i64 %66
  store i8 32, i8* %67, align 1
  store i32 0, i32* %7, align 4
  br label %72

68:                                               ; preds = %54
  br label %69

69:                                               ; preds = %68
  %70 = load i32, i32* %5, align 4
  %71 = add nsw i32 %70, 1
  store i32 %71, i32* %5, align 4
  br label %50

72:                                               ; preds = %61, %50
  %73 = load i32, i32* %7, align 4
  %74 = icmp ne i32 %73, 0
  br i1 %74, label %75, label %79

75:                                               ; preds = %72
  %76 = load i32, i32* %4, align 4
  %77 = sext i32 %76 to i64
  %78 = getelementptr inbounds [101 x i8], [101 x i8]* @a, i64 0, i64 %77
  store i8 36, i8* %78, align 1
  br label %79

79:                                               ; preds = %75, %72
  br label %80

80:                                               ; preds = %79, %31
  br label %81

81:                                               ; preds = %80, %43
  %82 = load i32, i32* %4, align 4
  %83 = add nsw i32 %82, -1
  store i32 %83, i32* %4, align 4
  br label %28

84:                                               ; preds = %28
  %85 = load i32, i32* %6, align 4
  %86 = sub nsw i32 %85, 1
  store i32 %86, i32* %4, align 4
  br label %87

87:                                               ; preds = %114, %84
  %88 = load i32, i32* %4, align 4
  %89 = icmp sge i32 %88, 0
  br i1 %89, label %90, label %117

90:                                               ; preds = %87
  %91 = load i32, i32* %4, align 4
  %92 = sext i32 %91 to i64
  %93 = getelementptr inbounds [101 x i8], [101 x i8]* @a, i64 0, i64 %92
  %94 = load i8, i8* %93, align 1
  %95 = sext i8 %94 to i32
  %96 = icmp eq i32 %95, 41
  br i1 %96, label %97, label %101

97:                                               ; preds = %90
  %98 = load i32, i32* %4, align 4
  %99 = sext i32 %98 to i64
  %100 = getelementptr inbounds [101 x i8], [101 x i8]* @a, i64 0, i64 %99
  store i8 63, i8* %100, align 1
  br label %113

101:                                              ; preds = %90
  %102 = load i32, i32* %4, align 4
  %103 = sext i32 %102 to i64
  %104 = getelementptr inbounds [101 x i8], [101 x i8]* @a, i64 0, i64 %103
  %105 = load i8, i8* %104, align 1
  %106 = sext i8 %105 to i32
  %107 = icmp ne i32 %106, 36
  br i1 %107, label %108, label %112

108:                                              ; preds = %101
  %109 = load i32, i32* %4, align 4
  %110 = sext i32 %109 to i64
  %111 = getelementptr inbounds [101 x i8], [101 x i8]* @a, i64 0, i64 %110
  store i8 32, i8* %111, align 1
  br label %112

112:                                              ; preds = %108, %101
  br label %113

113:                                              ; preds = %112, %97
  br label %114

114:                                              ; preds = %113
  %115 = load i32, i32* %4, align 4
  %116 = add nsw i32 %115, -1
  store i32 %116, i32* %4, align 4
  br label %87

117:                                              ; preds = %87
  %118 = call i32 (i8*, ...) @printf(i8* getelementptr inbounds ([4 x i8], [4 x i8]* @.str.2, i64 0, i64 0), i8* getelementptr inbounds ([101 x i8], [101 x i8]* @a, i64 0, i64 0))
  br label %119

119:                                              ; preds = %117
  %120 = load i32, i32* %2, align 4
  %121 = add nsw i32 %120, 1
  store i32 %121, i32* %2, align 4
  br label %9

122:                                              ; preds = %9
  ret i32 0
}

declare dso_local i32 @__isoc99_scanf(i8*, ...) #1

declare dso_local i32 @printf(i8*, ...) #1

; Function Attrs: nounwind readonly
declare dso_local i64 @strlen(i8*) #2


!llvm.module.flags = !{!0}
!llvm.ident = !{!1}

!0 = !{i32 1, !"wchar_size", i32 4}
!1 = !{!"clang version 10.0.0-4ubuntu1 "}
